(dp0
S'1511582036'
p1
(dp2
S'top'
p3
(dp4
S'hull_vertices'
p5
I17
sS'in_bounds'
p6
I00
sS'name'
p7
S'SHAPES_DATA'
p8
sS'object_width_(extent_x)'
p9
I430
sS'solidity'
p10
F3.695119420536182
sS'convex-hull_area'
p11
F101197.0
sS'object_bounding_ellipse_angle'
p12
F89.85257720947266
sS'object_perimeter_length'
p13
F1631.8691807985306
sS'object_area'
p14
F373935.0
sS'object_height_(extent_y)'
p15
I337
sS'object_bounding_ellipse_eccentricity'
p16
cnumpy.core.multiarray
scalar
p17
(cnumpy
dtype
p18
(S'f8'
p19
I0
I1
tp20
Rp21
(I3
S'<'
p22
NNNI-1
I-1
I0
tp23
bS'V5j\xb9p\x80\xdf?'
p24
tp25
Rp26
sS'object_bounding_ellipse_center-x'
p27
F594.4381103515625
sS'object_bounding_ellipse_minor_axis'
p28
F344.978271484375
sS'contour_area'
p29
F86178.5
sS'object_bounding_ellipse_major_axis'
p30
F396.3108215332031
sS'center_of_mass-y'
p31
F283.5064997927447
sS'center_of_mass-x'
p32
F751.3356947062993
sS'longest_axis'
p33
I313
sS'object_bounding_ellipse_center-y'
p34
F118.84736633300781
ssS'right'
p35
(dp36
g5
I28
sg6
I01
sg7
g8
sg9
I347
sg10
F4.468390203681685
sg11
F83684.5
sg12
F73.87095642089844
sg13
F1467.6336804628372
sg14
F373935.0
sg15
I329
sg16
g17
(g21
S'\x1e@h\xcb\x978\xd7?'
p37
tp38
Rp39
sg27
F825.3189697265625
sg28
F302.2297058105469
sg29
F69246.5
sg30
F324.3310241699219
sg31
F283.5064997927447
sg32
F751.3356947062993
sg33
I246
sg34
F334.01702880859375
ssS'left'
p40
(dp41
g5
I29
sg6
I01
sg7
g8
sg9
I397
sg10
F3.9886825459471567
sg11
F93749.0
sg12
F107.93134307861328
sg13
F1761.2976748943329
sg14
F373935.0
sg15
I373
sg16
g17
(g21
S'\xdd\xf9\xd1\x90"A\xe0?'
p42
tp43
Rp44
sg27
F343.7286376953125
sg28
F312.4818115234375
sg29
F75874.0
sg30
F362.7663269042969
sg31
F283.5064997927447
sg32
F751.3356947062993
sg33
I392
sg34
F366.3517150878906
sssS'1511509388'
p45
(dp46
g3
(dp47
g5
I4
sg6
I00
sg7
g8
sg9
I1278
sg10
F0.9992190989822075
sg11
F915609.0
sg12
F90.0
sg13
F3988.0
sg14
F914894.0
sg15
I718
sg16
g17
(g21
S'X\x1cq#6P\xeb?'
p48
tp49
Rp50
sg27
F639.5
sg28
F822.0468139648438
sg29
F915609.0
sg30
F1577.7493896484375
sg31
F358.76343926181613
sg32
F637.993958862994
sg33
I1278
sg34
F359.5
ssg35
Nsg40
NssS'1511513007'
p51
(dp52
g3
(dp53
g5
I18
sg6
I00
sg7
g8
sg9
I390
sg10
F3.4428080885158336
sg11
F91735.0
sg12
F79.61344909667969
sg13
F1654.538227558136
sg14
F315826.0
sg15
I318
sg16
g17
(g21
S'\xfe\xe0\xa0[us\xda?'
p54
tp55
Rp56
sg27
F593.3814086914062
sg28
F325.72393798828125
sg29
F74705.0
sg30
F357.7040100097656
sg31
F293.9161690297822
sg32
F774.0694527999594
sg33
I289
sg34
F117.73950958251953
ssg35
(dp57
g5
I29
sg6
I01
sg7
g8
sg9
I352
sg10
F3.994308768290986
sg11
F79069.0
sg12
F83.95071411132812
sg13
F1518.8296386003494
sg14
F315826.0
sg15
I300
sg16
g17
(g21
S'%\xefS>\x18\x1e\xdc?'
p58
tp59
Rp60
sg27
F844.792236328125
sg28
F286.92315673828125
sg29
F60812.5
sg30
F319.39886474609375
sg31
F293.9161690297822
sg32
F774.0694527999594
sg33
I233
sg34
F352.9580993652344
ssg40
(dp61
g5
I35
sg6
I01
sg7
g8
sg9
I334
sg10
F4.107637782474394
sg11
F76887.5
sg12
F156.23800659179688
sg13
F1518.871268749237
sg14
F315826.0
sg15
I362
sg16
g17
(g21
S'5\x96\xf3\xe0\x1c\x9c\xd7?'
p62
tp63
Rp64
sg27
F352.0960693359375
sg28
F291.41693115234375
sg29
F61218.0
sg30
F313.5309753417969
sg31
F293.9161690297822
sg32
F774.0694527999594
sg33
I333
sg34
F380.1756286621094
sssS'1511471863'
p65
(dp66
g3
(dp67
g5
I18
sg6
I00
sg7
g8
sg9
I364
sg10
F3.557397578865764
sg11
F83845.0
sg12
F67.9955825805664
sg13
F1528.6559777259827
sg14
F298270.0
sg15
I297
sg16
g17
(g21
S'\xe0\xd2\xfew~\x01\xdf?'
p68
tp69
Rp70
sg27
F590.3994140625
sg28
F295.7901611328125
sg29
F67747.0
sg30
F338.11932373046875
sg31
F296.80214570690987
sg32
F792.2391323297684
sg33
I266
sg34
F120.9423828125
ssg35
(dp71
g5
I27
sg6
I01
sg7
g8
sg9
I344
sg10
F4.149612543301938
sg11
F71879.0
sg12
F75.6992416381836
sg13
F1443.8763210773468
sg14
F298270.0
sg15
I297
sg16
g17
(g21
S'u\xc7\xae;L,\xe2?'
p72
tp73
Rp74
sg27
F856.5906372070312
sg28
F270.9603271484375
sg29
F55331.0
sg30
F329.19793701171875
sg31
F296.80214570690987
sg32
F792.2391323297684
sg33
I216
sg34
F358.7755432128906
ssg40
(dp75
g5
I24
sg6
I01
sg7
g8
sg9
I287
sg10
F4.406444130921339
sg11
F67689.5
sg12
F166.67623901367188
sg13
F1367.5920503139496
sg14
F298270.0
sg15
I358
sg16
g17
(g21
S"=\x0e\xec&\xe0'\xe4?"
p76
tp77
Rp78
sg27
F358.74639892578125
sg28
F251.2550811767578
sg29
F53876.0
sg30
F323.4894714355469
sg31
F296.80214570690987
sg32
F792.2391323297684
sg33
I283
sg34
F379.63446044921875
sssS'1511574800'
p79
(dp80
g3
(dp81
g5
I16
sg6
I00
sg7
g8
sg9
I414
sg10
F3.682634791351417
sg11
F98467.0
sg12
F76.74365997314453
sg13
F1651.325024485588
sg14
F362618.0
sg15
I336
sg16
g17
(g21
S'\x1e\x0b}\x14\x13\xd1\xdc?'
p82
tp83
Rp84
sg27
F595.9645385742188
sg28
F340.7309875488281
sg29
F83554.5
sg30
F381.6016540527344
sg31
F285.74018112724684
sg32
F756.7886977480434
sg33
I304
sg34
F118.2291030883789
ssg35
(dp85
g5
I29
sg6
I01
sg7
g8
sg9
I345
sg10
F4.431168164626956
sg11
F81833.5
sg12
F69.26477813720703
sg13
F1503.0895241498947
sg14
F362618.0
sg15
I325
sg16
g17
(g21
S'\x8e\xaf\xdfy\x87\x1a\xda?'
p86
tp87
Rp88
sg27
F824.7838134765625
sg28
F295.1480712890625
sg29
F66933.5
sg30
F323.2585144042969
sg31
F285.74018112724684
sg32
F756.7886977480434
sg33
I242
sg34
F336.43426513671875
ssg40
(dp89
g5
I29
sg6
I01
sg7
g8
sg9
I388
sg10
F3.9226117715781617
sg11
F92443.0
sg12
F108.8470458984375
sg13
F2196.9387744665146
sg14
F362618.0
sg15
I372
sg16
g17
(g21
S')\xaf\x1c,\xf59\xdf?'
p90
tp91
Rp92
sg27
F343.6030578613281
sg28
F312.23101806640625
sg29
F74273.5
sg30
F357.69696044921875
sg31
F285.74018112724684
sg32
F756.7886977480434
sg33
I385
sg34
F366.7113952636719
sssS'1511493546'
p93
(dp94
g3
(dp95
g5
I16
sg6
I00
sg7
g8
sg9
I381
sg10
F3.4521685332839938
sg11
F86475.5
sg12
F67.07183074951172
sg13
F1592.9818786382675
sg14
F298528.0
sg15
I306
sg16
g17
(g21
S'\xf8\xd9o\xac\x14\x8a\xda?'
p96
tp97
Rp98
sg27
F599.2753295898438
sg28
F312.0610656738281
sg29
F69425.5
sg30
F342.9361877441406
sg31
F296.54740593847146
sg32
F787.617891789045
sg33
I276
sg34
F117.59011840820312
ssg35
(dp99
g5
I28
sg6
I01
sg7
g8
sg9
I337
sg10
F4.069633971781065
sg11
F73355.0
sg12
F77.35025024414062
sg13
F1416.562612771988
sg14
F298528.0
sg15
I296
sg16
g17
(g21
S'\x92\xa3,X\x1c\x1f\xe1?'
p100
tp101
Rp102
sg27
F858.1671142578125
sg28
F273.859130859375
sg29
F57904.0
sg30
F324.1619873046875
sg31
F296.54740593847146
sg32
F787.617891789045
sg33
I245
sg34
F355.5580749511719
ssg40
(dp103
g5
I25
sg6
I01
sg7
g8
sg9
I308
sg10
F4.204708550180638
sg11
F70998.5
sg12
F158.09451293945312
sg13
F1417.8174459934235
sg14
F298528.0
sg15
I356
sg16
g17
(g21
S's#\xfc\x03(n\xe0?'
p104
tp105
Rp106
sg27
F361.4988098144531
sg28
F268.0397033691406
sg29
F56087.0
sg30
F312.35638427734375
sg31
F296.54740593847146
sg32
F787.617891789045
sg33
I307
sg34
F377.8205871582031
sssS'1511531096'
p107
(dp108
g3
(dp109
g5
I16
sg6
I00
sg7
g8
sg9
I392
sg10
F3.7171359526460126
sg11
F92072.5
sg12
F84.6217041015625
sg13
F1574.7564829587936
sg14
F342246.0
sg15
I320
sg16
g17
(g21
S'\xf9\xc1D\x00*\x0c\xde?'
p110
tp111
Rp112
sg27
F588.45361328125
sg28
F323.3713684082031
sg29
F77118.5
sg30
F366.2453308105469
sg31
F287.1411791518382
sg32
F768.0510860609036
sg33
I298
sg34
F114.6273422241211
ssg35
(dp113
g5
I29
sg6
I01
sg7
g8
sg9
I352
sg10
F4.228260802421472
sg11
F80942.5
sg12
F79.87915802001953
sg13
F1528.6458730697632
sg14
F342246.0
sg15
I311
sg16
g17
(g21
S'B"\x01T\xaf\xd9\xd7?'
p114
tp115
Rp116
sg27
F829.6442260742188
sg28
F294.57623291015625
sg29
F63562.0
sg30
F317.44244384765625
sg31
F287.1411791518382
sg32
F768.0510860609036
sg33
I233
sg34
F341.8620910644531
ssg40
(dp117
g5
I31
sg6
I01
sg7
g8
sg9
I358
sg10
F4.081159074648223
sg11
F83860.0
sg12
F116.74687957763672
sg13
F2148.4188631772995
sg14
F342246.0
sg15
I366
sg16
g17
(g21
S'\xf3`"z\x91\x1c\xd3?'
p118
tp119
Rp120
sg27
F345.32366943359375
sg28
F309.17559814453125
sg29
F66713.5
sg30
F323.9569396972656
sg31
F287.1411791518382
sg32
F768.0510860609036
sg33
I358
sg34
F372.7886962890625
sssS'1511508002'
p121
(dp122
g3
(dp123
g5
I19
sg6
I00
sg7
g8
sg9
I389
sg10
F3.500238582327357
sg11
F91163.5
sg12
F66.31547546386719
sg13
F1631.5676651000977
sg14
F319094.0
sg15
I315
sg16
g17
(g21
S'#\rF\xdeM\xe1\xd7?'
p124
tp125
Rp126
sg27
F593.0686645507812
sg28
F326.38775634765625
sg29
F74042.0
sg30
F351.7941589355469
sg31
F294.19136994114587
sg32
F776.1714197070456
sg33
I287
sg34
F117.9509048461914
ssg35
(dp127
g5
I28
sg6
I01
sg7
g8
sg9
I347
sg10
F4.1414693342505045
sg11
F77048.5
sg12
F80.06157684326172
sg13
F1477.2316595315933
sg14
F319094.0
sg15
I296
sg16
g17
(g21
S']-y\x18\xf1\xe1\xdc?'
p128
tp129
Rp130
sg27
F846.5028686523438
sg28
F283.484130859375
sg29
F59793.5
sg30
F317.6730041503906
sg31
F294.19136994114587
sg32
F776.1714197070456
sg33
I233
sg34
F354.2251281738281
ssg40
(dp131
g5
I28
sg6
I01
sg7
g8
sg9
I328
sg10
F4.229295479698072
sg11
F75448.5
sg12
F155.1488037109375
sg13
F1461.474300146103
sg14
F319094.0
sg15
I359
sg16
g17
(g21
S'Sz\x06]8|\xda?'
p132
tp133
Rp134
sg27
F353.336181640625
sg28
F286.2665710449219
sg29
F60611.0
sg30
F314.45654296875
sg31
F294.19136994114587
sg32
F776.1714197070456
sg33
I327
sg34
F379.4677734375
sssS'1511497160'
p135
(dp136
g3
(dp137
g5
I18
sg6
I00
sg7
g8
sg9
I391
sg10
F3.446763077618348
sg11
F88510.0
sg12
F64.94447326660156
sg13
F1898.0913735628128
sg14
F305073.0
sg15
I309
sg16
g17
(g21
S'\x8a\x80X\x19}\xd3\xdb?'
p138
tp139
Rp140
sg27
F601.3048095703125
sg28
F315.74884033203125
sg29
F70659.5
sg30
F350.6235656738281
sg31
F296.44951863980094
sg32
F784.4801473745628
sg33
I280
sg34
F116.88455200195312
ssg35
(dp141
g5
I30
sg6
I01
sg7
g8
sg9
I337
sg10
F4.110803436078828
sg11
F74212.5
sg12
F76.86376953125
sg13
F1436.6042429208755
sg14
F305073.0
sg15
I296
sg16
g17
(g21
S'{\x0c\x06C\x07\x03\xe0?'
p142
tp143
Rp144
sg27
F856.2521362304688
sg28
F276.9334716796875
sg29
F58520.5
sg30
F319.8540954589844
sg31
F296.44951863980094
sg32
F784.4801473745628
sg33
I249
sg34
F355.2424011230469
ssg40
(dp145
g5
I26
sg6
I01
sg7
g8
sg9
I312
sg10
F4.261004378705663
sg11
F71596.5
sg12
F156.71359252929688
sg13
F1420.261097073555
sg14
F305073.0
sg15
I356
sg16
g17
(g21
S'<\x0c\x1a\xf2$t\xdf?'
p146
tp147
Rp148
sg27
F360.92218017578125
sg28
F271.7729187011719
sg29
F56807.5
sg30
F312.0605773925781
sg31
F296.44951863980094
sg32
F784.4801473745628
sg33
I311
sg34
F377.772705078125
sssS'1511442631'
p149
(dp150
g3
(dp151
g5
I21
sg6
I00
sg7
g8
sg9
I375
sg10
F3.699269365841844
sg11
F86705.5
sg12
F60.53986358642578
sg13
F1620.0113161802292
sg14
F320747.0
sg15
I310
sg16
g17
(g21
S'\x83\x10\xe2\xfemG\xd9?'
p152
tp153
Rp154
sg27
F595.5325927734375
sg28
F310.5452880859375
sg29
F68779.5
sg30
F338.0314025878906
sg31
F292.3119779764113
sg32
F783.2964610736811
sg33
I265
sg34
F120.50814819335938
ssg35
(dp155
g5
I34
sg6
I01
sg7
g8
sg9
I322
sg10
F4.744953585561596
sg11
F67597.5
sg12
F65.28746032714844
sg13
F1415.8346909284592
sg14
F320747.0
sg15
I292
sg16
g17
(g21
S'\xe8\x8f\xc8\xf6yK\xe2?'
p156
tp157
Rp158
sg27
F850.3712158203125
sg28
F259.81561279296875
sg29
F55184.5
sg30
F316.6732177734375
sg31
F292.3119779764113
sg32
F783.2964610736811
sg33
I218
sg34
F359.6546630859375
ssg40
(dp159
g5
I30
sg6
I01
sg7
g8
sg9
I275
sg10
F4.952703746023903
sg11
F64762.0
sg12
F160.43882751464844
sg13
F1351.650925397873
sg14
F320747.0
sg15
I349
sg16
g17
(g21
S'\xccS\xc4Y\xe4M\xe5?'
p160
tp161
Rp162
sg27
F362.5906982421875
sg28
F242.53582763671875
sg29
F52917.0
sg30
F325.0420837402344
sg31
F292.3119779764113
sg32
F783.2964610736811
sg33
I271
sg34
F377.2706604003906
sssS'1511500774'
p163
(dp164
g3
(dp165
g5
I15
sg6
I00
sg7
g8
sg9
I384
sg10
F3.416474202237293
sg11
F88544.5
sg12
F66.12420654296875
sg13
F1624.8813734054565
sg14
F302510.0
sg15
I311
sg16
g17
(g21
S'`\xb3?\x08\x95d\xd8?'
p166
tp167
Rp168
sg27
F599.9675903320312
sg28
F319.3880615234375
sg29
F71375.0
sg30
F345.4645080566406
sg31
F295.45982612145053
sg32
F784.1380648573601
sg33
I282
sg34
F117.61385345458984
ssg35
(dp169
g5
I31
sg6
I01
sg7
g8
sg9
I339
sg10
F4.051183844011142
sg11
F74672.0
sg12
F77.43460083007812
sg13
F1432.462107539177
sg14
F302510.0
sg15
I296
sg16
g17
(g21
S'\xcf\x9dF\xba\xe3\x83\xdf?'
p170
tp171
Rp172
sg27
F856.7225952148438
sg28
F277.7373046875
sg29
F58612.5
sg30
F319.10809326171875
sg31
F295.45982612145053
sg32
F784.1380648573601
sg33
I248
sg34
F354.98779296875
ssg40
(dp173
g5
I29
sg6
I01
sg7
g8
sg9
I316
sg10
F4.182127353664943
sg11
F72334.0
sg12
F157.0192413330078
sg13
F1417.9179512262344
sg14
F302510.0
sg15
I357
sg16
g17
(g21
S'\xf9\xe4\xa9\x1aRP\xde?'
p174
tp175
Rp176
sg27
F360.9766845703125
sg28
F275.0105895996094
sg29
F57468.5
sg30
F312.2594299316406
sg31
F295.45982612145053
sg32
F784.1380648573601
sg33
I315
sg34
F377.9293212890625
sssS'1511420957'
p177
(dp178
g3
(dp179
g5
I19
sg6
I00
sg7
g8
sg9
I359
sg10
F3.7371094876760873
sg11
F84936.5
sg12
F63.4000244140625
sg13
F1567.0407537221909
sg14
F317417.0
sg15
I308
sg16
g17
(g21
S'\x89\x8e&\xb0\x8d(\xd8?'
p180
tp181
Rp182
sg27
F591.7536010742188
sg28
F305.3826904296875
sg29
F68350.5
sg30
F329.7799072265625
sg31
F292.2306839268218
sg32
F784.2913360027976
sg33
I259
sg34
F123.43174743652344
ssg35
(dp183
g5
I26
sg6
I01
sg7
g8
sg9
I320
sg10
F4.7257879613500675
sg11
F67167.0
sg12
F65.65508270263672
sg13
F1440.0773315429688
sg14
F317417.0
sg15
I292
sg16
g17
(g21
S'\\\x14P\x0e]V\xe3?'
p184
tp185
Rp186
sg27
F851.5667724609375
sg28
F257.13018798828125
sg29
F55184.0
sg30
F322.71868896484375
sg31
F292.2306839268218
sg32
F784.2913360027976
sg33
I217
sg34
F362.50628662109375
ssg40
(dp187
g5
I31
sg6
I01
sg7
g8
sg9
I270
sg10
F5.035966999841345
sg11
F63030.0
sg12
F161.2015380859375
sg13
F1301.5087900161743
sg14
F317417.0
sg15
I347
sg16
g17
(g21
S'\xac>h\xd0\x1e\x84\xe6?'
p188
tp189
Rp190
sg27
F363.109375
sg28
F233.55352783203125
sg29
F51470.0
sg30
F328.6854248046875
sg31
F292.2306839268218
sg32
F784.2913360027976
sg33
I182
sg34
F376.05694580078125
sssS'1511417344'
p191
(dp192
g3
(dp193
g5
I21
sg6
I00
sg7
g8
sg9
I358
sg10
F3.693664113572344
sg11
F84668.5
sg12
F62.20444107055664
sg13
F1570.6976078748703
sg14
F312737.0
sg15
I307
sg16
g17
(g21
S'}\x91\x87M\x1a\xd8\xd7?'
p194
tp195
Rp196
sg27
F591.1351928710938
sg28
F304.5496826171875
sg29
F68102.5
sg30
F328.1763610839844
sg31
F294.3512504116878
sg32
F786.931200977179
sg33
I258
sg34
F123.12348937988281
ssg35
(dp197
g5
I28
sg6
I01
sg7
g8
sg9
I319
sg10
F4.6672636236783
sg11
F67006.5
sg12
F65.34159851074219
sg13
F1445.3910398483276
sg14
F312737.0
sg15
I292
sg16
g17
(g21
S'\x91]F\x02/s\xe3?'
p198
tp199
Rp200
sg27
F851.2625732421875
sg28
F255.9866943359375
sg29
F54986.0
sg30
F322.3680419921875
sg31
F294.3512504116878
sg32
F786.931200977179
sg33
I217
sg34
F362.515625
ssg40
(dp201
g5
I30
sg6
I01
sg7
g8
sg9
I270
sg10
F5.008961248007944
sg11
F62435.5
sg12
F161.7178955078125
sg13
F1300.7219930887222
sg14
F312737.0
sg15
I345
sg16
g17
(g21
S'\xbd\x1c\xca\xe1\xd9\xb2\xe6?'
p202
tp203
Rp204
sg27
F362.6629638671875
sg28
F231.61387634277344
sg29
F51040.5
sg30
F328.5889892578125
sg31
F294.3512504116878
sg32
F786.931200977179
sg33
I179
sg34
F374.9168395996094
sssS'1511523861'
p205
(dp206
g3
(dp207
g5
I16
sg6
I00
sg7
g8
sg9
I389
sg10
F3.663258515336681
sg11
F90909.5
sg12
F82.6219711303711
sg13
F1582.513842344284
sg14
F333025.0
sg15
I317
sg16
g17
(g21
S'\x1a\x12\xaa\xde\xd5\x86\xdd?'
p208
tp209
Rp210
sg27
F586.9955444335938
sg28
F320.6955261230469
sg29
F75208.0
sg30
F361.46282958984375
sg31
F289.1923639366414
sg32
F770.4837414608513
sg33
I296
sg34
F113.76189422607422
ssg35
(dp211
g5
I28
sg6
I01
sg7
g8
sg9
I354
sg10
F4.10728711234992
sg11
F81081.5
sg12
F81.19056701660156
sg13
F1531.859076142311
sg14
F333025.0
sg15
I308
sg16
g17
(g21
S'\xb8p\xb0\xc5\xd2\xdb\xd9?'
p212
tp213
Rp214
sg27
F833.0352172851562
sg28
F292.4435119628906
sg29
F62998.5
sg30
F319.7010803222656
sg31
F289.1923639366414
sg32
F770.4837414608513
sg33
I245
sg34
F342.76409912109375
ssg40
(dp215
g5
I30
sg6
I01
sg7
g8
sg9
I352
sg10
F4.0538895550185945
sg11
F82149.5
sg12
F132.3451690673828
sg13
F1570.5453678369522
sg14
F333025.0
sg15
I366
sg16
g17
(g21
S'Y\xd5\xe8A{\xb4\xd1?'
p216
tp217
Rp218
sg27
F345.30462646484375
sg28
F306.2638244628906
sg29
F64874.5
sg30
F318.70166015625
sg31
F289.1923639366414
sg32
F770.4837414608513
sg33
I351
sg34
F371.98187255859375
sssS'1511413731'
p219
(dp220
g3
(dp221
g5
I23
sg6
I00
sg7
g8
sg9
I359
sg10
F3.6589713825452477
sg11
F84424.0
sg12
F62.08982467651367
sg13
F1557.4844048023224
sg14
F308905.0
sg15
I306
sg16
g17
(g21
S'\x1dx\x99\xd9z\x05\xd9?'
p222
tp223
Rp224
sg27
F591.5242309570312
sg28
F303.0152282714844
sg29
F67771.0
sg30
F329.2184143066406
sg31
F295.1956135381428
sg32
F790.6929929913728
sg33
I257
sg34
F122.88986206054688
ssg35
(dp225
g5
I28
sg6
I01
sg7
g8
sg9
I317
sg10
F4.642290901166941
sg11
F66541.5
sg12
F64.41606903076172
sg13
F1437.148399233818
sg14
F308905.0
sg15
I292
sg16
g17
(g21
S'\x13\xf2yI\x8a\xc7\xe3?'
p226
tp227
Rp228
sg27
F850.7271728515625
sg28
F253.41781616210938
sg29
F54522.5
sg30
F322.37628173828125
sg31
F295.1956135381428
sg32
F790.6929929913728
sg33
I214
sg34
F362.8728332519531
ssg40
(dp229
g5
I28
sg6
I01
sg7
g8
sg9
I270
sg10
F5.006766886826857
sg11
F61697.5
sg12
F161.03839111328125
sg13
F1279.650925397873
sg14
F308905.0
sg15
I345
sg16
g17
(g21
S'\xac(9?\x16\xd7\xe6?'
p230
tp231
Rp232
sg27
F363.38232421875
sg28
F229.92884826660156
sg29
F50481.0
sg30
F328.28466796875
sg31
F295.1956135381428
sg32
F790.6929929913728
sg33
I184
sg34
F375.3598937988281
sssS'1511560328'
p233
(dp234
g3
(dp235
g5
I17
sg6
I00
sg7
g8
sg9
I407
sg10
F3.6491841372006704
sg11
F97259.0
sg12
F78.04283905029297
sg13
F1601.5676651000977
sg14
F354916.0
sg15
I332
sg16
g17
(g21
S'\xaa\xdei9-\x87\xdd?'
p236
tp237
Rp238
sg27
F593.077392578125
sg28
F335.05242919921875
sg29
F81940.0
sg30
F377.6494140625
sg31
F285.5163052665983
sg32
F760.1848662782179
sg33
I301
sg34
F118.66964721679688
ssg35
(dp239
g5
I32
sg6
I01
sg7
g8
sg9
I342
sg10
F4.4720024192329015
sg11
F79364.0
sg12
F71.9697036743164
sg13
F1515.8174459934235
sg14
F354916.0
sg15
I313
sg16
g17
(g21
S'\x82\xef\xc3\xf4\xb4V\xdd?'
p240
tp241
Rp242
sg27
F826.676513671875
sg28
F289.50018310546875
sg29
F64511.0
sg30
F325.7433166503906
sg31
F285.5163052665983
sg32
F760.1848662782179
sg33
I235
sg34
F340.51605224609375
ssg40
(dp243
g5
I26
sg6
I01
sg7
g8
sg9
I375
sg10
F4.024789499050265
sg11
F88182.5
sg12
F118.5211181640625
sg13
F2162.6346378326416
sg14
F354916.0
sg15
I371
sg16
g17
(g21
S')$mp\xb2\xcc\xdb?'
p244
tp245
Rp246
sg27
F347.848388671875
sg28
F311.5165100097656
sg29
F71260.5
sg30
F345.8469543457031
sg31
F285.5163052665983
sg32
F760.1848662782179
sg33
I372
sg34
F367.16119384765625
sssS'1511475478'
p247
(dp248
g3
(dp249
g5
I16
sg6
I00
sg7
g8
sg9
I371
sg10
F3.4805046007016216
sg11
F84661.0
sg12
F61.347625732421875
sg13
F1591.1828891038895
sg14
F294663.0
sg15
I306
sg16
g17
(g21
S'\x084\xa1\xeaK\xc1\xd9?'
p250
tp251
Rp252
sg27
F594.0308837890625
sg28
F307.12799072265625
sg29
F66724.5
sg30
F335.4925842285156
sg31
F297.0105578236833
sg32
F791.9930259313181
sg33
I270
sg34
F118.18904113769531
ssg35
(dp253
g5
I30
sg6
I01
sg7
g8
sg9
I329
sg10
F4.200949502437911
sg11
F70142.0
sg12
F70.44146728515625
sg13
F1430.8052533864975
sg14
F294663.0
sg15
I295
sg16
g17
(g21
S'\x92\xdc\xd7\xa3{T\xe1?'
p254
tp255
Rp256
sg27
F852.5057373046875
sg28
F268.7188415527344
sg29
F54058.5
sg30
F319.6521301269531
sg31
F297.0105578236833
sg32
F791.9930259313181
sg33
I216
sg34
F357.521240234375
ssg40
(dp257
g5
I25
sg6
I01
sg7
g8
sg9
I296
sg10
F4.27577650567007
sg11
F68914.5
sg12
F163.9187774658203
sg13
F1372.8052533864975
sg14
F294663.0
sg15
I355
sg16
g17
(g21
S'\x02\xe7\x15\x8c\xec\xc7\xe1?'
p258
tp259
Rp260
sg27
F359.933837890625
sg28
F260.91424560546875
sg29
F54591.5
sg30
F313.8202209472656
sg31
F297.0105578236833
sg32
F791.9930259313181
sg33
I296
sg34
F377.6405334472656
sssS'1511435406'
p261
(dp262
g3
(dp263
g5
I18
sg6
I00
sg7
g8
sg9
I370
sg10
F3.7032268559941435
sg11
F86059.0
sg12
F61.232765197753906
sg13
F1614.9818786382675
sg14
F318696.0
sg15
I309
sg16
g17
(g21
S'\xf0\x9d\x7fQ\x82\xaf\xd8?'
p264
tp265
Rp266
sg27
F594.304443359375
sg28
F308.7912902832031
sg29
F68533.5
sg30
F334.68988037109375
sg31
F294.09243605191153
sg32
F786.6598702211512
sg33
I265
sg34
F121.42671966552734
ssg35
(dp267
g5
I34
sg6
I01
sg7
g8
sg9
I322
sg10
F4.730427554678165
sg11
F67371.5
sg12
F66.42093658447266
sg13
F1425.1067690849304
sg14
F318696.0
sg15
I292
sg16
g17
(g21
S'\xa2zX\x1c\xe1\x9b\xe2?'
p268
tp269
Rp270
sg27
F851.4666748046875
sg28
F259.63629150390625
sg29
F55247.0
sg30
F319.1492614746094
sg31
F294.09243605191153
sg32
F786.6598702211512
sg33
I218
sg34
F361.0267333984375
ssg40
(dp271
g5
I33
sg6
I01
sg7
g8
sg9
I271
sg10
F4.976126161292841
sg11
F64045.0
sg12
F159.97508239746094
sg13
F1327.7930607795715
sg14
F318696.0
sg15
I348
sg16
g17
(g21
S'\xe0\xea\x80\xd8L\xc1\xe5?'
p272
tp273
Rp274
sg27
F362.4168701171875
sg28
F239.15512084960938
sg29
F52407.0
sg30
F326.1111145019531
sg31
F294.09243605191153
sg32
F786.6598702211512
sg33
I266
sg34
F377.46435546875
sssS'1511424569'
p275
(dp276
g3
(dp277
g5
I23
sg6
I00
sg7
g8
sg9
I358
sg10
F3.7376748236318598
sg11
F84978.5
sg12
F64.07530975341797
sg13
F1566.839743256569
sg14
F317622.0
sg15
I308
sg16
g17
(g21
S'\xa1M\x1c|\xdd\xdf\xd6?'
p278
tp279
Rp280
sg27
F591.5768432617188
sg28
F306.6355285644531
sg29
F68463.5
sg30
F328.3224792480469
sg31
F293.226407490665
sg32
F786.8975921063402
sg33
I262
sg34
F123.54252624511719
ssg35
(dp281
g5
I31
sg6
I01
sg7
g8
sg9
I321
sg10
F4.7212486064659975
sg11
F67275.0
sg12
F65.90618133544922
sg13
F1440.462107539177
sg14
F317622.0
sg15
I293
sg16
g17
(g21
S'T\xe2\xaf\x04m\x11\xe3?'
p282
tp283
Rp284
sg27
F851.2305908203125
sg28
F258.1619873046875
sg29
F55289.5
sg30
F321.46661376953125
sg31
F293.226407490665
sg32
F786.8975921063402
sg33
I216
sg34
F362.0608215332031
ssg40
(dp285
g5
I26
sg6
I01
sg7
g8
sg9
I270
sg10
F5.0234389827291706
sg11
F63228.0
sg12
F160.8778533935547
sg13
F1303.2661494016647
sg14
F317622.0
sg15
I347
sg16
g17
(g21
S'H\xdf\xfe)We\xe6?'
p286
tp287
Rp288
sg27
F362.7730712890625
sg28
F234.60484313964844
sg29
F51575.5
sg30
F328.4541931152344
sg31
F293.226407490665
sg32
F786.8975921063402
sg33
I181
sg34
F376.0194091796875
sssS'1511406505'
p289
(dp290
g3
(dp291
g5
I19
sg6
I00
sg7
g8
sg9
I363
sg10
F3.7142381942381943
sg11
F84175.0
sg12
F59.13991928100586
sg13
F1592.839743256569
sg14
F312646.0
sg15
I305
sg16
g17
(g21
S'\x00+c\xf6E\xd0\xda?'
p292
tp293
Rp294
sg27
F591.8330688476562
sg28
F299.93621826171875
sg29
F67239.5
sg30
F330.3248596191406
sg31
F291.6248952489397
sg32
F786.5581360388427
sg33
I259
sg34
F121.26174926757812
ssg35
(dp295
g5
I27
sg6
I01
sg7
g8
sg9
I312
sg10
F4.795331145127151
sg11
F65198.0
sg12
F61.11480712890625
sg13
F1407.1067690849304
sg14
F312646.0
sg15
I290
sg16
g17
(g21
S'\x1c\x1bS\xbe\x07\x87\xe4?'
p296
tp297
Rp298
sg27
F848.7808227539062
sg28
F248.04638671875
sg29
F53315.0
sg30
F323.3403625488281
sg31
F291.6248952489397
sg32
F786.5581360388427
sg33
I207
sg34
F363.244873046875
ssg40
(dp299
g5
I28
sg6
I01
sg7
g8
sg9
I270
sg10
F5.174287936712841
sg11
F60423.0
sg12
F161.38519287109375
sg13
F1246.538227558136
sg14
F312646.0
sg15
I341
sg16
g17
(g21
S'0\\\x824\xeb\x17\xe7?'
p300
tp301
Rp302
sg27
F364.0753479003906
sg28
F226.76316833496094
sg29
F49776.0
sg30
F327.58001708984375
sg31
F291.6248952489397
sg32
F786.5581360388427
sg33
I180
sg34
F374.6219787597656
sssS'1511578418'
p303
(dp304
g3
(dp305
g5
I16
sg6
I00
sg7
g8
sg9
I419
sg10
F3.6916522810099237
sg11
F99057.0
sg12
F81.21233367919922
sg13
F1641.5676651000977
sg14
F365684.0
sg15
I336
sg16
g17
(g21
S'8e\x10\x0b6\xac\xdd?'
p306
tp307
Rp308
sg27
F595.8370361328125
sg28
F342.27838134765625
sg29
F84598.0
sg30
F386.3074645996094
sg31
F285.8805143238424
sg32
F755.492668533488
sg33
I308
sg34
F118.42488098144531
ssg35
(dp309
g5
I30
sg6
I01
sg7
g8
sg9
I346
sg10
F4.426872302691709
sg11
F82605.5
sg12
F68.0703125
sg13
F1507.6753106117249
sg14
F365684.0
sg15
I327
sg16
g17
(g21
S'\xfe\xdb\x0c\xf4pR\xd8?'
p310
tp311
Rp312
sg27
F824.6751098632812
sg28
F298.5146484375
sg29
F67903.0
sg30
F322.7278137207031
sg31
F285.8805143238424
sg32
F755.492668533488
sg33
I243
sg34
F335.5697326660156
ssg40
(dp313
g5
I31
sg6
I01
sg7
g8
sg9
I394
sg10
F3.8890761843483626
sg11
F94028.5
sg12
F106.47340393066406
sg13
F2170.11538875103
sg14
F365684.0
sg15
I373
sg16
g17
(g21
S'4\xa0b\xef\xd6`\xe0?'
p314
tp315
Rp316
sg27
F342.43975830078125
sg28
F312.0843505859375
sg29
F75500.5
sg30
F363.2723388671875
sg31
F285.8805143238424
sg32
F755.492668533488
sg33
I391
sg34
F367.5888671875
sssS'1511571181'
p317
(dp318
g3
(dp319
g5
I15
sg6
I00
sg7
g8
sg9
I416
sg10
F3.6371442265528597
sg11
F98061.0
sg12
F75.0925064086914
sg13
F1676.8813734054565
sg14
F356662.0
sg15
I336
sg16
g17
(g21
S"c\xdd'<\x11\x82\xdc?"
p320
tp321
Rp322
sg27
F595.689208984375
sg28
F341.33013916015625
sg29
F82642.0
sg30
F381.2413635253906
sg31
F287.08444129175524
sg32
F760.7632099859251
sg33
I304
sg34
F117.66261291503906
ssg35
(dp323
g5
I29
sg6
I01
sg7
g8
sg9
I346
sg10
F4.388443886653624
sg11
F81273.0
sg12
F68.38872528076172
sg13
F1494.5037376880646
sg14
F356662.0
sg15
I322
sg16
g17
(g21
S'..\xb2\xa4s\x16\xdc?'
p324
tp325
Rp326
sg27
F825.03173828125
sg28
F292.0654602050781
sg29
F66363.0
sg30
F325.04071044921875
sg31
F287.08444129175524
sg32
F760.7632099859251
sg33
I240
sg34
F337.7065734863281
ssg40
(dp327
g5
I29
sg6
I01
sg7
g8
sg9
I385
sg10
F3.912719613403617
sg11
F91154.5
sg12
F111.00911712646484
sg13
F1737.883461356163
sg14
F356662.0
sg15
I372
sg16
g17
(g21
S's\xd9\x97@\xc7\x95\xde?'
p328
tp329
Rp330
sg27
F345.4681701660156
sg28
F311.083251953125
sg29
F72890.5
sg30
F354.1400451660156
sg31
F287.08444129175524
sg32
F760.7632099859251
sg33
I382
sg34
F367.6542053222656
sssS'1511392055'
p331
(dp332
g3
(dp333
g5
I23
sg6
I00
sg7
g8
sg9
I353
sg10
F3.715239277003857
sg11
F81798.5
sg12
F65.44010925292969
sg13
F1713.9351961612701
sg14
F303901.0
sg15
I304
sg16
g17
(g21
S'\xd34&\x1dN\x8f\xde?'
p334
tp335
Rp336
sg27
F591.4315185546875
sg28
F286.081298828125
sg29
F63835.0
sg30
F325.59796142578125
sg31
F294.8034261157416
sg32
F790.8430442808677
sg33
I243
sg34
F127.63121032714844
ssg35
(dp337
g5
I25
sg6
I01
sg7
g8
sg9
I311
sg10
F4.990901775303411
sg11
F60891.0
sg12
F54.116249084472656
sg13
F1329.2661494016647
sg14
F303901.0
sg15
I290
sg16
g17
(g21
S'\xc8\xd2\xb0\x04TK\xe6?'
p338
tp339
Rp340
sg27
F842.9109497070312
sg28
F233.0551300048828
sg29
F50260.5
sg30
F324.87567138671875
sg31
F294.8034261157416
sg32
F790.8430442808677
sg33
I199
sg34
F361.9377136230469
ssg40
(dp341
g5
I27
sg6
I01
sg7
g8
sg9
I269
sg10
F5.008586591073901
sg11
F60676.0
sg12
F161.3009796142578
sg13
F1287.751430630684
sg14
F303901.0
sg15
I337
sg16
g17
(g21
S'+2\xc8\xb3\xbbs\xe6?'
p342
tp343
Rp344
sg27
F365.4303894042969
sg28
F229.39788818359375
sg29
F49612.5
sg30
F321.942138671875
sg31
F294.8034261157416
sg32
F790.8430442808677
sg33
I192
sg34
F374.53216552734375
sssS'1511504388'
p345
(dp346
g3
(dp347
g5
I18
sg6
I00
sg7
g8
sg9
I385
sg10
F3.4916595891133353
sg11
F90073.5
sg12
F69.09468078613281
sg13
F1611.9696860313416
sg14
F314506.0
sg15
I313
sg16
g17
(g21
S'\x07\xc9L\x12+:\xd8?'
p348
tp349
Rp350
sg27
F591.957275390625
sg28
F323.3851013183594
sg29
F73061.0
sg30
F349.38616943359375
sg31
F295.9766077594704
sg32
F781.0415222603067
sg33
I287
sg34
F118.01171875
ssg35
(dp351
g5
I26
sg6
I01
sg7
g8
sg9
I344
sg10
F4.141151995154484
sg11
F75946.5
sg12
F80.20858001708984
sg13
F1449.7169407606125
sg14
F314506.0
sg15
I294
sg16
g17
(g21
S'\x7fe\r\xc9\xf6\xde\xde?'
p352
tp353
Rp354
sg27
F848.7015991210938
sg28
F280.2181396484375
sg29
F59467.5
sg30
F319.8932800292969
sg31
F295.9766077594704
sg32
F781.0415222603067
sg33
I227
sg34
F354.6800537109375
ssg40
(dp355
g5
I27
sg6
I01
sg7
g8
sg9
I322
sg10
F4.245233483387214
sg11
F74084.5
sg12
F155.97109985351562
sg13
F1448.7880084514618
sg14
F314506.0
sg15
I359
sg16
g17
(g21
S'Y\x8d\xf3\xf7\x9f\xa7\xdc?'
p356
tp357
Rp358
sg27
F353.77239990234375
sg28
F280.5106201171875
sg29
F59383.0
sg30
F313.7112121582031
sg31
F295.9766077594704
sg32
F781.0415222603067
sg33
I321
sg34
F379.3045349121094
sssS'1511520243'
p359
(dp360
g3
(dp361
g5
I16
sg6
I00
sg7
g8
sg9
I388
sg10
F3.642070131621117
sg11
F90487.0
sg12
F82.648681640625
sg13
F1579.928055882454
sg14
F329560.0
sg15
I315
sg16
g17
(g21
S'\xc6f\x15k\\\x00\xdd?'
p362
tp363
Rp364
sg27
F586.3165283203125
sg28
F319.986328125
sg29
F74248.5
sg30
F358.95611572265625
sg31
F290.7415554072096
sg32
F773.7185307682971
sg33
I296
sg34
F114.0241928100586
ssg35
(dp365
g5
I26
sg6
I01
sg7
g8
sg9
I356
sg10
F4.062573193131248
sg11
F81121.0
sg12
F80.93181610107422
sg13
F1538.5453678369522
sg14
F329560.0
sg15
I306
sg16
g17
(g21
S'gp\xc7W\xff\xd8\xda?'
p366
tp367
Rp368
sg27
F834.7398071289062
sg28
F291.2781982421875
sg29
F62854.5
sg30
F320.87652587890625
sg31
F290.7415554072096
sg32
F773.7185307682971
sg33
I244
sg34
F344.1247253417969
ssg40
(dp369
g5
I29
sg6
I01
sg7
g8
sg9
I346
sg10
F4.088149007300266
sg11
F80613.5
sg12
F142.67477416992188
sg13
F1562.9301438331604
sg14
F329560.0
sg15
I364
sg16
g17
(g21
S'\xa4\xb0\xfe\x9e\x92\xd3\xd2?'
p370
tp371
Rp372
sg27
F345.9766845703125
sg28
F302.4190368652344
sg29
F63640.0
sg30
F316.4189453125
sg31
F290.7415554072096
sg32
F773.7185307682971
sg33
I346
sg34
F372.4407653808594
sssS'1511479092'
p373
(dp374
g3
(dp375
g5
I15
sg6
I00
sg7
g8
sg9
I380
sg10
F3.45408354744652
sg11
F86597.5
sg12
F59.764564514160156
sg13
F1627.1240140199661
sg14
F299115.0
sg15
I311
sg16
g17
(g21
S'y\x007\xd76\xd0\xda?'
p376
tp377
Rp378
sg27
F596.9862060546875
sg28
F309.87896728515625
sg29
F67386.5
sg30
F341.27435302734375
sg31
F295.81530515019307
sg32
F789.0883472911756
sg33
I272
sg34
F118.34046936035156
ssg35
(dp379
g5
I31
sg6
I01
sg7
g8
sg9
I326
sg10
F4.204596570143379
sg11
F71140.0
sg12
F67.94195556640625
sg13
F1435.148399233818
sg14
F299115.0
sg15
I296
sg16
g17
(g21
S'i\xcd\xaa,c\x8d\xe0?'
p380
tp381
Rp382
sg27
F850.6285400390625
sg28
F271.8321228027344
sg29
F55245.5
sg30
F317.6244201660156
sg31
F295.81530515019307
sg32
F789.0883472911756
sg33
I226
sg34
F356.7597351074219
ssg40
(dp383
g5
I27
sg6
I01
sg7
g8
sg9
I302
sg10
F4.256683198258135
sg11
F70269.5
sg12
F164.7609405517578
sg13
F1388.361602306366
sg14
F299115.0
sg15
I356
sg16
g17
(g21
S'N2T,\xfc\xa4\xe0?'
p384
tp385
Rp386
sg27
F360.5804748535156
sg28
F266.4137878417969
sg29
F55418.0
sg30
F311.9302978515625
sg31
F295.81530515019307
sg32
F789.0883472911756
sg33
I301
sg34
F377.3690185546875
sssS'1511482706'
p387
(dp388
g3
(dp389
g5
I16
sg6
I00
sg7
g8
sg9
I383
sg10
F3.489310378819068
sg11
F86228.5
sg12
F60.49532699584961
sg13
F1623.8519358634949
sg14
F300878.0
sg15
I308
sg16
g17
(g21
S'\xb6\xe1\xf0\x1c\xb42\xdc?'
p390
tp391
Rp392
sg27
F597.4337768554688
sg28
F307.9324645996094
sg29
F67376.0
sg30
F343.0214538574219
sg31
F296.4388290270475
sg32
F790.6293614022959
sg33
I269
sg34
F117.86492156982422
ssg35
(dp393
g5
I32
sg6
I01
sg7
g8
sg9
I331
sg10
F4.219177698003141
sg11
F71312.0
sg12
F71.93230438232422
sg13
F1409.7341856956482
sg14
F300878.0
sg15
I295
sg16
g17
(g21
S'rc$\x9e\xd2(\xe1?'
p394
tp395
Rp396
sg27
F851.8510131835938
sg28
F270.7708740234375
sg29
F56178.0
sg30
F320.7920227050781
sg31
F296.4388290270475
sg32
F790.6293614022959
sg33
I232
sg34
F356.54400634765625
ssg40
(dp397
g5
I21
sg6
I01
sg7
g8
sg9
I300
sg10
F4.2931054163575135
sg11
F70084.0
sg12
F164.0246124267578
sg13
F1399.1900293827057
sg14
F300878.0
sg15
I355
sg16
g17
(g21
S'\x8aP\xb3\xe7\xcf%\xe1?'
p398
tp399
Rp400
sg27
F359.65728759765625
sg28
F263.8129577636719
sg29
F55162.0
sg30
F312.46234130859375
sg31
F296.4388290270475
sg32
F790.6293614022959
sg33
I300
sg34
F376.8096618652344
sssS'1511410117'
p401
(dp402
g3
(dp403
g5
I19
sg6
I00
sg7
g8
sg9
I365
sg10
F3.7049203598445644
sg11
F84536.5
sg12
F59.42021942138672
sg13
F1586.0113161802292
sg14
F313201.0
sg15
I305
sg16
g17
(g21
S'\x14p\x14%Y\xd6\xda?'
p404
tp405
Rp406
sg27
F592.0343017578125
sg28
F300.946533203125
sg29
F67555.5
sg30
F331.5000305175781
sg31
F294.371486681077
sg32
F789.3864866331844
sg33
I256
sg34
F121.53231811523438
ssg35
(dp407
g5
I29
sg6
I01
sg7
g8
sg9
I314
sg10
F4.758628024461579
sg11
F65817.5
sg12
F62.60487365722656
sg13
F1422.9057586193085
sg14
F313201.0
sg15
I291
sg16
g17
(g21
S'\xe7m\x98LH$\xe4?'
p408
tp409
Rp410
sg27
F849.8236694335938
sg28
F250.90139770507812
sg29
F54018.0
sg30
F322.8863220214844
sg31
F294.371486681077
sg32
F789.3864866331844
sg33
I211
sg34
F362.91253662109375
ssg40
(dp411
g5
I25
sg6
I01
sg7
g8
sg9
I269
sg10
F5.1370953853219286
sg11
F60968.5
sg12
F160.9045867919922
sg13
F1261.325024485588
sg14
F313201.0
sg15
I343
sg16
g17
(g21
S'\xbc\xbfY\xa9i\xf1\xe6?'
p412
tp413
Rp414
sg27
F363.7546081542969
sg28
F228.01138305664062
sg29
F50091.5
sg30
F327.0834045410156
sg31
F294.371486681077
sg32
F789.3864866331844
sg33
I175
sg34
F375.37188720703125
sssS'1511402893'
p415
(dp416
g3
(dp417
g5
I21
sg6
I00
sg7
g8
sg9
I360
sg10
F3.734675829100687
sg11
F83675.0
sg12
F58.747440338134766
sg13
F1587.8691807985306
sg14
F312499.0
sg15
I305
sg16
g17
(g21
S'|\x10X\x92\xea\x05\xda?'
p418
tp419
Rp420
sg27
F591.1267700195312
sg28
F299.61590576171875
sg29
F66717.5
sg30
F327.95037841796875
sg31
F292.7590040288129
sg32
F786.854540334529
sg33
I258
sg34
F121.25460815429688
ssg35
(dp421
g5
I25
sg6
I01
sg7
g8
sg9
I312
sg10
F4.854164886800513
sg11
F64377.5
sg12
F58.895599365234375
sg13
F1398.1778367757797
sg14
F312499.0
sg15
I291
sg16
g17
(g21
S'\xdd!G\xb6:\xe4\xe4?'
p422
tp423
Rp424
sg27
F847.4771728515625
sg28
F244.94711303710938
sg29
F52650.5
sg30
F323.3716735839844
sg31
F292.7590040288129
sg32
F786.854540334529
sg33
I203
sg34
F363.0430908203125
ssg40
(dp425
g5
I28
sg6
I01
sg7
g8
sg9
I269
sg10
F5.19394674733238
sg11
F60166.0
sg12
F161.20281982421875
sg13
F1245.9108109474182
sg14
F312499.0
sg15
I340
sg16
g17
(g21
S'\x1dI\xe3\x02\x12\x1f\xe7?'
p426
tp427
Rp428
sg27
F364.1826477050781
sg28
F225.85476684570312
sg29
F49579.0
sg30
F326.69781494140625
sg31
F292.7590040288129
sg32
F786.854540334529
sg33
I171
sg34
F374.9453430175781
sssS'1511431794'
p429
(dp430
g3
(dp431
g5
I21
sg6
I00
sg7
g8
sg9
I364
sg10
F3.7287229697401125
sg11
F85691.0
sg12
F60.73805618286133
sg13
F1600.3960921764374
sg14
F319518.0
sg15
I309
sg16
g17
(g21
S't\xdc\xdd\xc3\xbe\x8b\xd7?'
p432
tp433
Rp434
sg27
F592.893798828125
sg28
F308.3680419921875
sg29
F68484.0
sg30
F331.6271667480469
sg31
F291.78609968765454
sg32
F784.1163064365701
sg33
I263
sg34
F122.76677703857422
ssg35
(dp435
g5
I32
sg6
I01
sg7
g8
sg9
I320
sg10
F4.756855739169272
sg11
F67170.0
sg12
F66.02789306640625
sg13
F1429.1067690849304
sg14
F319518.0
sg15
I292
sg16
g17
(g21
S'r4\xfb\xbe\xc5\xd4\xe2?'
p436
tp437
Rp438
sg27
F850.8980712890625
sg28
F258.58880615234375
sg29
F55183.0
sg30
F319.83111572265625
sg31
F291.78609968765454
sg32
F784.1163064365701
sg33
I216
sg34
F361.4874572753906
ssg40
(dp439
g5
I30
sg6
I01
sg7
g8
sg9
I269
sg10
F5.016611191358412
sg11
F63692.0
sg12
F160.19923400878906
sg13
F1325.8935660123825
sg14
F319518.0
sg15
I347
sg16
g17
(g21
S'R\xa5\xec>\x10\xe5\xe5?'
p440
tp441
Rp442
sg27
F362.4000549316406
sg28
F238.07826232910156
sg29
F52142.5
sg30
F326.4551086425781
sg31
F291.78609968765454
sg32
F784.1163064365701
sg33
I263
sg34
F376.87420654296875
sssS'1511428182'
p443
(dp444
g3
(dp445
g5
I21
sg6
I00
sg7
g8
sg9
I360
sg10
F3.736689356762176
sg11
F85279.5
sg12
F75.087158203125
sg13
F2111.7793498039246
sg14
F318663.0
sg15
I309
sg16
g17
(g21
S'\x1d\xac\xe8Soz\xd7?'
p446
tp447
Rp448
sg27
F593.3115234375
sg28
F305.4955749511719
sg29
F67970.5
sg30
F328.3906555175781
sg31
F293.74047818541845
sg32
F786.0514148175345
sg33
I262
sg34
F121.29066467285156
ssg35
(dp449
g5
I31
sg6
I01
sg7
g8
sg9
I320
sg10
F4.73408356545961
sg11
F67312.5
sg12
F66.20226287841797
sg13
F1437.9768263101578
sg14
F318663.0
sg15
I293
sg16
g17
(g21
S'\x0f\x9bZ\x0b\xe7\xec\xe2?'
p450
tp451
Rp452
sg27
F851.4649658203125
sg28
F258.8311462402344
sg29
F55327.5
sg30
F320.9852600097656
sg31
F293.74047818541845
sg32
F786.0514148175345
sg33
I215
sg34
F361.8211975097656
ssg40
(dp453
g5
I28
sg6
I01
sg7
g8
sg9
I269
sg10
F5.026230283911672
sg11
F63400.0
sg12
F160.32041931152344
sg13
F1320.236711859703
sg14
F318663.0
sg15
I348
sg16
g17
(g21
S"'/6\xad\xbf3\xe6?"
p454
tp455
Rp456
sg27
F362.8955383300781
sg28
F236.2295379638672
sg29
F51881.5
sg30
F328.0276184082031
sg31
F293.74047818541845
sg32
F786.0514148175345
sg33
I171
sg34
F376.50830078125
sssS'1511486318'
p457
(dp458
g3
(dp459
g5
I15
sg6
I00
sg7
g8
sg9
I402
sg10
F3.4666091516919617
sg11
F88093.0
sg12
F64.43048858642578
sg13
F1659.8519358634949
sg14
F305384.0
sg15
I308
sg16
g17
(g21
S'\x80X\xd8\xce\xbaO\xe0?'
p460
tp461
Rp462
sg27
F602.8139038085938
sg28
F307.8793640136719
sg29
F67876.0
sg30
F357.8607482910156
sg31
F295.56631978099705
sg32
F787.7880177088518
sg33
I273
sg34
F115.13833618164062
ssg35
(dp463
g5
I32
sg6
I01
sg7
g8
sg9
I336
sg10
F4.2393247820534175
sg11
F72036.0
sg12
F74.25711059570312
sg13
F1410.3199721574783
sg14
F305384.0
sg15
I296
sg16
g17
(g21
S'\xa27\xeeOiQ\xe1?'
p464
tp465
Rp466
sg27
F854.1187744140625
sg28
F272.08905029296875
sg29
F56921.5
sg30
F323.5682067871094
sg31
F295.56631978099705
sg32
F787.7880177088518
sg33
I239
sg34
F357.3170471191406
ssg40
(dp467
g5
I23
sg6
I01
sg7
g8
sg9
I302
sg10
F4.339289393476515
sg11
F70376.5
sg12
F162.1868896484375
sg13
F1408.1189616918564
sg14
F305384.0
sg15
I356
sg16
g17
(g21
S'\x01X\xb3\x0bk\xb1\xe0?'
p468
tp469
Rp470
sg27
F358.90484619140625
sg28
F265.8161315917969
sg29
F55501.5
sg30
F311.5683898925781
sg31
F295.56631978099705
sg32
F787.7880177088518
sg33
I302
sg34
F377.51605224609375
sssS'1511516625'
p471
(dp472
g3
(dp473
g5
I12
sg6
I00
sg7
g8
sg9
I385
sg10
F3.6543962380838297
sg11
F89741.5
sg12
F87.50506591796875
sg13
F2169.319195628166
sg14
F327951.0
sg15
I315
sg16
g17
(g21
S'\x99\xcf\xe5\xe1\xb3I\xde?'
p474
tp475
Rp476
sg27
F587.2242431640625
sg28
F315.5000915527344
sg29
F75838.5
sg30
F358.1447448730469
sg31
F290.36850627075387
sg32
F774.6834252677992
sg33
I295
sg34
F113.69971466064453
ssg35
(dp477
g5
I29
sg6
I01
sg7
g8
sg9
I355
sg10
F4.071927439331011
sg11
F80539.5
sg12
F83.1750259399414
sg13
F1543.273289680481
sg14
F327951.0
sg15
I304
sg16
g17
(g21
S'\rZ\xc3\xd1\xa0\xa9\xda?'
p478
tp479
Rp480
sg27
F836.2805786132812
sg28
F290.546875
sg29
F62196.0
sg30
F319.6024475097656
sg31
F290.36850627075387
sg32
F774.6834252677992
sg33
I242
sg34
F344.8138427734375
ssg40
(dp481
g5
I27
sg6
I01
sg7
g8
sg9
I342
sg10
F4.131119662910733
sg11
F79385.5
sg12
F150.38723754882812
sg13
F1547.273289680481
sg14
F327951.0
sg15
I363
sg16
g17
(g21
S'0I(\xec\xa8W\xd4?'
p482
tp483
Rp484
sg27
F346.3308410644531
sg28
F298.6272888183594
sg29
F62752.0
sg30
F314.96087646484375
sg31
F290.36850627075387
sg32
F774.6834252677992
sg33
I342
sg34
F372.334716796875
sssS'1511563946'
p485
(dp486
g3
(dp487
g5
I21
sg6
I00
sg7
g8
sg9
I407
sg10
F3.6606653459655316
sg11
F97423.0
sg12
F72.47392272949219
sg13
F2361.085845351219
sg14
F356633.0
sg15
I334
sg16
g17
(g21
S'\xf4\x1c\xed\x9c\x13C\xdb?'
p488
tp489
Rp490
sg27
F592.0385131835938
sg28
F339.01446533203125
sg29
F82809.5
sg30
F374.710205078125
sg31
F285.90191877924923
sg32
F759.7755227362583
sg33
I302
sg34
F118.58589172363281
ssg35
(dp491
g5
I27
sg6
I01
sg7
g8
sg9
I344
sg10
F4.434740978387923
sg11
F80418.0
sg12
F71.12975311279297
sg13
F1505.0895241498947
sg14
F356633.0
sg15
I315
sg16
g17
(g21
S'h\xb9Q^\xd7\x9c\xdd?'
p492
tp493
Rp494
sg27
F826.1549682617188
sg28
F289.22802734375
sg29
F65741.5
sg30
F326.25244140625
sg31
F285.90191877924923
sg32
F759.7755227362583
sg33
I238
sg34
F339.4140930175781
ssg40
(dp495
g5
I26
sg6
I01
sg7
g8
sg9
I380
sg10
F3.967482116832983
sg11
F89889.0
sg12
F115.19022369384766
sg13
F1923.3812087774277
sg14
F356633.0
sg15
I372
sg16
g17
(g21
S'\x94\x15:_\xe9\xff\xdc?'
p496
tp497
Rp498
sg27
F346.8493957519531
sg28
F311.7664794921875
sg29
F72228.5
sg30
F349.729736328125
sg31
F285.90191877924923
sg32
F759.7755227362583
sg33
I375
sg34
F367.0836181640625
sssS'1511489932'
p499
(dp500
g3
(dp501
g5
I18
sg6
I00
sg7
g8
sg9
I379
sg10
F3.4982258449813846
sg11
F85815.5
sg12
F63.98301315307617
sg13
F1607.9524410963058
sg14
F300202.0
sg15
I308
sg16
g17
(g21
S'-\xad\xa7{\xfe\x90\xda?'
p502
tp503
Rp504
sg27
F596.3856201171875
sg28
F309.9957580566406
sg29
F68268.5
sg30
F340.73858642578125
sg31
F296.0682040759222
sg32
F787.8346113616832
sg33
I272
sg34
F117.07674407958984
ssg35
(dp505
g5
I25
sg6
I01
sg7
g8
sg9
I334
sg10
F4.166636594539827
sg11
F72049.0
sg12
F75.63967895507812
sg13
F1404.1189616918564
sg14
F300202.0
sg15
I295
sg16
g17
(g21
S'\xe0d\xb9W\xbep\xe1?'
p506
tp507
Rp508
sg27
F854.4185791015625
sg28
F271.1605529785156
sg29
F57012.5
sg30
F323.4154968261719
sg31
F296.0682040759222
sg32
F787.8346113616832
sg33
I243
sg34
F355.6599426269531
ssg40
(dp509
g5
I26
sg6
I01
sg7
g8
sg9
I305
sg10
F4.248963242891314
sg11
F70653.0
sg12
F161.29071044921875
sg13
F1404.7047481536865
sg14
F300202.0
sg15
I356
sg16
g17
(g21
S'?\xb8c\xf6\x1c\x86\xe0?'
p510
tp511
Rp512
sg27
F358.9032897949219
sg28
F266.94317626953125
sg29
F55580.0
sg30
F311.7166442871094
sg31
F296.0682040759222
sg32
F787.8346113616832
sg33
I304
sg34
F377.3210144042969
sssS'1511439019'
p513
(dp514
g3
(dp515
g5
I19
sg6
I00
sg7
g8
sg9
I379
sg10
F3.672558171657468
sg11
F86876.5
sg12
F59.20621871948242
sg13
F1617.7686755657196
sg14
F319059.0
sg15
I310
sg16
g17
(g21
S'H\xd7\xeev\xf0K\xdb?'
p516
tp517
Rp518
sg27
F596.42236328125
sg28
F308.82952880859375
sg29
F68650.0
sg30
F341.4432067871094
sg31
F293.5023271557925
sg32
F785.7562488442577
sg33
I265
sg34
F120.61752319335938
ssg35
(dp519
g5
I34
sg6
I01
sg7
g8
sg9
I321
sg10
F4.749173885862285
sg11
F67182.0
sg12
F65.59806823730469
sg13
F1419.8346909284592
sg14
F319059.0
sg15
I291
sg16
g17
(g21
S'N\x83\xe4\xf9\xa7\x7f\xe2?'
p520
tp521
Rp522
sg27
F850.3825073242188
sg28
F259.3681335449219
sg29
F55064.5
sg30
F317.8616943359375
sg31
F293.5023271557925
sg32
F785.7562488442577
sg33
I217
sg34
F360.4673767089844
ssg40
(dp523
g5
I32
sg6
I01
sg7
g8
sg9
I273
sg10
F4.959106593304113
sg11
F64338.0
sg12
F160.32681274414062
sg13
F1332.4793524742126
sg14
F319059.0
sg15
I349
sg16
g17
(g21
S'Y\x18\xa8\xf7\xdd\x8e\xe5?'
p524
tp525
Rp526
sg27
F362.4599914550781
sg28
F240.92860412597656
sg29
F52645.0
sg30
F326.01348876953125
sg31
F293.5023271557925
sg32
F785.7562488442577
sg33
I268
sg34
F377.22705078125
sssS'1511399281'
p527
(dp528
g3
(dp529
g5
I20
sg6
I00
sg7
g8
sg9
I355
sg10
F3.706574670420629
sg11
F82757.0
sg12
F68.26014709472656
sg13
F1664.8224983215332
sg14
F306745.0
sg15
I304
sg16
g17
(g21
S'Gs[G\xbc+\xdc?'
p530
tp531
Rp532
sg27
F591.0989990234375
sg28
F292.6307678222656
sg29
F65375.0
sg30
F325.900390625
sg31
F291.75359337560513
sg32
F790.0583253190761
sg33
I256
sg34
F124.0350570678711
ssg35
(dp533
g5
I26
sg6
I01
sg7
g8
sg9
I312
sg10
F4.881676109236743
sg11
F62836.0
sg12
F57.10337448120117
sg13
F1365.2072743177414
sg14
F306745.0
sg15
I290
sg16
g17
(g21
S'2\xbeh\xaa\x19f\xe5?'
p534
tp535
Rp536
sg27
F845.966064453125
sg28
F240.48446655273438
sg29
F51738.5
sg30
F323.44036865234375
sg31
F291.75359337560513
sg32
F790.0583253190761
sg33
I191
sg34
F362.3802490234375
ssg40
(dp537
g5
I25
sg6
I01
sg7
g8
sg9
I269
sg10
F5.101278874457434
sg11
F60131.0
sg12
F161.01023864746094
sg13
F1252.2955869436264
sg14
F306745.0
sg15
I339
sg16
g17
(g21
S'i\xd9\x08\xb2a\xf2\xe6?'
p538
tp539
Rp540
sg27
F364.7875671386719
sg28
F226.1056365966797
sg29
F49392.5
sg30
F324.4062194824219
sg31
F291.75359337560513
sg32
F790.0583253190761
sg33
I183
sg34
F375.3763122558594
sssS'1511527478'
p541
(dp542
g3
(dp543
g5
I17
sg6
I00
sg7
g8
sg9
I391
sg10
F3.702359030236993
sg11
F91775.0
sg12
F84.76957702636719
sg13
F1585.2001340389252
sg14
F339784.0
sg15
I319
sg16
g17
(g21
S'\x12\xf6\xa9\xe0\x0b\x7f\xdd?'
p544
tp545
Rp546
sg27
F586.9974975585938
sg28
F322.9529724121094
sg29
F75941.0
sg30
F363.9059143066406
sg31
F288.43904951380875
sg32
F769.6975696324724
sg33
I300
sg34
F113.93290710449219
ssg35
(dp547
g5
I32
sg6
I01
sg7
g8
sg9
I353
sg10
F4.175917903339785
sg11
F81367.5
sg12
F81.97547912597656
sg13
F1522.4032324552536
sg14
F339784.0
sg15
I310
sg16
g17
(g21
S'\x9d~\xeeF\xba\xd4\xd9?'
p548
tp549
Rp550
sg27
F831.8428344726562
sg28
F293.41864013671875
sg29
F63506.5
sg30
F320.7000732421875
sg31
F288.43904951380875
sg32
F769.6975696324724
sg33
I246
sg34
F342.46405029296875
ssg40
(dp551
g5
I29
sg6
I01
sg7
g8
sg9
I356
sg10
F4.079333445386222
sg11
F83294.0
sg12
F120.4025650024414
sg13
F1585.4154250621796
sg14
F339784.0
sg15
I366
sg16
g17
(g21
S'\xbc\x9f,\x02[\t\xd1?'
p552
tp553
Rp554
sg27
F345.0712585449219
sg28
F308.71856689453125
sg29
F65731.0
sg30
F320.2744140625
sg31
F288.43904951380875
sg32
F769.6975696324724
sg33
I356
sg34
F372.53692626953125
sssS'1511395668'
p555
(dp556
g3
(dp557
g5
I22
sg6
I00
sg7
g8
sg9
I354
sg10
F3.7089369777031713
sg11
F82209.0
sg12
F66.1765365600586
sg13
F1667.0651389360428
sg14
F304908.0
sg15
I304
sg16
g17
(g21
S'\xbc\xb1D\x19\xcf\xb9\xdd?'
p558
tp559
Rp560
sg27
F591.1118774414062
sg28
F288.84844970703125
sg29
F64781.5
sg30
F326.16461181640625
sg31
F294.17939509622573
sg32
F791.716993322576
sg33
I251
sg34
F125.69178009033203
ssg35
(dp561
g5
I26
sg6
I01
sg7
g8
sg9
I312
sg10
F4.938341188474807
sg11
F61743.0
sg12
F54.837467193603516
sg13
F1343.0651389360428
sg14
F304908.0
sg15
I290
sg16
g17
(g21
S'\xdf\xbc\x1a\xb1s\xda\xe5?'
p562
tp563
Rp564
sg27
F843.7595825195312
sg28
F236.59263610839844
sg29
F50917.5
sg30
F323.8792419433594
sg31
F294.17939509622573
sg32
F791.716993322576
sg33
I203
sg34
F361.96044921875
ssg40
(dp565
g5
I25
sg6
I01
sg7
g8
sg9
I269
sg10
F5.047477155343663
sg11
F60408.0
sg12
F160.29559326171875
sg13
F1272.538227558136
sg14
F304908.0
sg15
I338
sg16
g17
(g21
S'U\x94\xb3\xf5\xd7\xb1\xe6?'
p566
tp567
Rp568
sg27
F364.5721435546875
sg28
F227.90174865722656
sg29
F49767.0
sg30
F323.265869140625
sg31
F294.17939509622573
sg32
F791.716993322576
sg33
I187
sg34
F375.0068359375
sssS'1511567563'
p569
(dp570
g3
(dp571
g5
I17
sg6
I00
sg7
g8
sg9
I407
sg10
F3.6986981931374268
sg11
F97019.0
sg12
F75.20075988769531
sg13
F2379.531623840332
sg14
F358844.0
sg15
I335
sg16
g17
(g21
S'\x9a\x94\xcf \xcb\r\xdb?'
p572
tp573
Rp574
sg27
F593.1869506835938
sg28
F340.1847839355469
sg29
F82071.5
sg30
F375.3714294433594
sg31
F285.8393090033552
sg32
F757.7675619489249
sg33
I301
sg34
F118.12300872802734
ssg35
(dp575
g5
I31
sg6
I01
sg7
g8
sg9
I344
sg10
F4.439847321632941
sg11
F80823.5
sg12
F69.68799591064453
sg13
F1496.361602306366
sg14
F358844.0
sg15
I320
sg16
g17
(g21
S'\xdfS\x86\xce\xc8\x88\xdc?'
p576
tp577
Rp578
sg27
F825.5116577148438
sg28
F290.5516052246094
sg29
F65954.0
sg30
F324.599365234375
sg31
F285.8393090033552
sg32
F757.7675619489249
sg33
I239
sg34
F338.1517333984375
ssg40
(dp579
g5
I29
sg6
I01
sg7
g8
sg9
I385
sg10
F3.931115322677826
sg11
F91283.0
sg12
F110.83836364746094
sg13
F1741.4398102760315
sg14
F358844.0
sg15
I372
sg16
g17
(g21
S'\xf6\xd4ejPs\xdd?'
p580
tp581
Rp582
sg27
F344.9956359863281
sg28
F312.8154296875
sg29
F73019.0
sg30
F352.3353576660156
sg31
F285.8393090033552
sg32
F757.7675619489249
sg33
I382
sg34
F367.2984619140625
sss.